; Function Attrs: mustprogress uwtable
define internal fastcc void @_ZN11OpenImageIO6v3_1_0L6paste_IttEEbRNS0_8ImageBufERKS2_NS0_3ROIES6_i(ptr noundef nonnull align 8 dereferenceable(16) %0, ptr noundef nonnull align 8 dereferenceable(16) %1, ptr noundef byval(%"struct.OpenImageIO::v3_1_0::ROI") align 8 %2, ptr noundef readonly byval(%"struct.OpenImageIO::v3_1_0::ROI") align 8 captures(none) %3, i32 noundef %4) unnamed_addr #5 personality ptr @__gxx_personality_v0 {
  %6 = alloca i32, align 4
  %7 = alloca i32, align 4
  %8 = alloca i32, align 4
  %9 = alloca %"class.OpenImageIO::v3_1_0::paropt", align 8
  %10 = alloca %"class.std::function", align 8
  call void @llvm.lifetime.start.p0(i64 4, ptr nonnull %6) #27
  %11 = load i32, ptr %2, align 8, !tbaa !11
  %12 = load i32, ptr %3, align 8, !tbaa !11
  %13 = sub nsw i32 %11, %12
  store i32 %13, ptr %6, align 4, !tbaa !15
  call void @llvm.lifetime.start.p0(i64 4, ptr nonnull %7) #27
  %14 = getelementptr inbounds nuw i8, ptr %2, i64 8
  %15 = load i32, ptr %14, align 8, !tbaa !17
  %16 = getelementptr inbounds nuw i8, ptr %3, i64 8
  %17 = load i32, ptr %16, align 8, !tbaa !17
  %18 = sub nsw i32 %15, %17
  store i32 %18, ptr %7, align 4, !tbaa !15
  call void @llvm.lifetime.start.p0(i64 4, ptr nonnull %8) #27
  %19 = getelementptr inbounds nuw i8, ptr %2, i64 16
  %20 = load i32, ptr %19, align 8, !tbaa !19
  %21 = getelementptr inbounds nuw i8, ptr %3, i64 16
  %22 = load i32, ptr %21, align 8, !tbaa !19
  %23 = sub nsw i32 %20, %22
  store i32 %23, ptr %8, align 4, !tbaa !15
  store i32 %4, ptr %9, align 8, !tbaa !30
  %24 = getelementptr inbounds nuw i8, ptr %9, i64 4
  store i16 0, ptr %24, align 4, !tbaa !36
  %25 = getelementptr inbounds nuw i8, ptr %9, i64 6
  store i16 1, ptr %25, align 2, !tbaa !37
  %26 = getelementptr inbounds nuw i8, ptr %9, i64 8
  store i64 1024, ptr %26, align 8, !tbaa !38
  %27 = getelementptr inbounds nuw i8, ptr %9, i64 16
  store ptr null, ptr %27, align 8, !tbaa !39
  %28 = getelementptr inbounds nuw i8, ptr %9, i64 24
  store i8 0, ptr %28, align 8, !tbaa !40
  %29 = getelementptr inbounds nuw i8, ptr %10, i64 16
  %30 = getelementptr inbounds nuw i8, ptr %10, i64 24
  %31 = getelementptr inbounds nuw i8, ptr %10, i64 8
  store i64 0, ptr %31, align 8
  %32 = tail call noalias noundef nonnull dereferenceable(48) ptr @_Znwm(i64 noundef 48) #30
  store ptr %6, ptr %32, align 16, !tbaa !43
  %.sroa.5.0..sroa_idx = getelementptr inbounds nuw i8, ptr %32, i64 8
  store ptr %7, ptr %.sroa.5.0..sroa_idx, align 8, !tbaa !43
  %.sroa.6.0..sroa_idx = getelementptr inbounds nuw i8, ptr %32, i64 16
  store ptr %8, ptr %.sroa.6.0..sroa_idx, align 16, !tbaa !43
  %.sroa.7.0..sroa_idx = getelementptr inbounds nuw i8, ptr %32, i64 24
  store ptr %2, ptr %.sroa.7.0..sroa_idx, align 8, !tbaa !50
  %.sroa.8.0..sroa_idx = getelementptr inbounds nuw i8, ptr %32, i64 32
  store ptr %1, ptr %.sroa.8.0..sroa_idx, align 16, !tbaa !41
  %.sroa.9.0..sroa_idx = getelementptr inbounds nuw i8, ptr %32, i64 40
  store ptr %0, ptr %.sroa.9.0..sroa_idx, align 8, !tbaa !41
  store ptr %32, ptr %10, align 8, !tbaa !45
  store ptr @_ZNSt17_Function_handlerIFvN11OpenImageIO6v3_1_03ROIEEZNS1_L6paste_IttEEbRNS1_8ImageBufERKS5_S2_S2_iEUlS2_E_E9_M_invokeERKSt9_Any_dataOS2_, ptr %30, align 8, !tbaa !46
  store ptr @_ZNSt17_Function_handlerIFvN11OpenImageIO6v3_1_03ROIEEZNS1_L6paste_IttEEbRNS1_8ImageBufERKS5_S2_S2_iEUlS2_E_E10_M_managerERSt9_Any_dataRKSB_St18_Manager_operation, ptr %29, align 8, !tbaa !49
  invoke void @_ZN11OpenImageIO6v3_1_012ImageBufAlgo14parallel_imageENS0_3ROIENS0_6paroptESt8functionIFvS2_EE(ptr noundef nonnull byval(%"struct.OpenImageIO::v3_1_0::ROI") align 8 %3, ptr noundef nonnull byval(%"class.OpenImageIO::v3_1_0::paropt") align 8 %9, ptr noundef nonnull %10)
          to label %33 unwind label %40

33:                                               ; preds = %5
  %34 = load ptr, ptr %29, align 8, !tbaa !49
  %.not.i = icmp eq ptr %34, null
  br i1 %.not.i, label %_ZNSt14_Function_baseD2Ev.exit, label %35

35:                                               ; preds = %33
  %36 = invoke noundef zeroext i1 %34(ptr noundef nonnull align 8 dereferenceable(32) %10, ptr noundef nonnull align 8 dereferenceable(32) %10, i32 noundef 3)
          to label %_ZNSt14_Function_baseD2Ev.exit unwind label %37

37:                                               ; preds = %35
  %38 = landingpad { ptr, i32 }
          catch ptr null
  %39 = extractvalue { ptr, i32 } %38, 0
  call void @__clang_call_terminate(ptr %39) #31
  unreachable

_ZNSt14_Function_baseD2Ev.exit:                   ; preds = %33, %35
  call void @llvm.lifetime.end.p0(i64 4, ptr nonnull %8) #27
  call void @llvm.lifetime.end.p0(i64 4, ptr nonnull %7) #27
  call void @llvm.lifetime.end.p0(i64 4, ptr nonnull %6) #27
  ret void

40:                                               ; preds = %5
  %41 = landingpad { ptr, i32 }
          cleanup
  %42 = load ptr, ptr %29, align 8, !tbaa !49
  %.not.i4 = icmp eq ptr %42, null
  br i1 %.not.i4, label %_ZNSt14_Function_baseD2Ev.exit5, label %43

43:                                               ; preds = %40
  %44 = invoke noundef zeroext i1 %42(ptr noundef nonnull align 8 dereferenceable(32) %10, ptr noundef nonnull align 8 dereferenceable(32) %10, i32 noundef 3)
          to label %_ZNSt14_Function_baseD2Ev.exit5 unwind label %45

45:                                               ; preds = %43
  %46 = landingpad { ptr, i32 }
          catch ptr null
  %47 = extractvalue { ptr, i32 } %46, 0
  call void @__clang_call_terminate(ptr %47) #31
  unreachable

_ZNSt14_Function_baseD2Ev.exit5:                  ; preds = %40, %43
  call void @llvm.lifetime.end.p0(i64 4, ptr nonnull %8) #27
  call void @llvm.lifetime.end.p0(i64 4, ptr nonnull %7) #27
  call void @llvm.lifetime.end.p0(i64 4, ptr nonnull %6) #27
  resume { ptr, i32 } %41
}